; ModuleID = '19/282.c'
source_filename = "19/282.c"
target datalayout = "e-m:e-p270:32:32-p271:32:32-p272:64:64-i64:64-f80:128-n8:16:32:64-S128"
target triple = "x86_64-pc-linux-gnu"

@.str = private unnamed_addr constant [3 x i8] c"%s\00", align 1

; Function Attrs: noinline nounwind uwtable
define dso_local i32 @main() #0 {
  %1 = alloca i32, align 4
  %2 = alloca [101 x i8], align 16
  %3 = alloca [101 x i8], align 16
  %4 = alloca [101 x i8], align 16
  %5 = alloca i32, align 4
  %6 = alloca i32, align 4
  %7 = alloca i8*, align 8
  %8 = alloca [101 x i8], align 16
  %9 = alloca i8*, align 8
  store i32 0, i32* %1, align 4
  %10 = getelementptr inbounds [101 x i8], [101 x i8]* %2, i64 0, i64 0
  %11 = call i32 (i8*, ...) bitcast (i32 (...)* @gets to i32 (i8*, ...)*)(i8* %10)
  %12 = getelementptr inbounds [101 x i8], [101 x i8]* %3, i64 0, i64 0
  %13 = call i32 (i8*, ...) @__isoc99_scanf(i8* getelementptr inbounds ([3 x i8], [3 x i8]* @.str, i64 0, i64 0), i8* %12)
  %14 = getelementptr inbounds [101 x i8], [101 x i8]* %4, i64 0, i64 0
  %15 = call i32 (i8*, ...) @__isoc99_scanf(i8* getelementptr inbounds ([3 x i8], [3 x i8]* @.str, i64 0, i64 0), i8* %14)
  %16 = getelementptr inbounds [101 x i8], [101 x i8]* %3, i64 0, i64 0
  %17 = call i64 @strlen(i8* %16) #4
  %18 = trunc i64 %17 to i32
  store i32 %18, i32* %5, align 4
  %19 = getelementptr inbounds [101 x i8], [101 x i8]* %4, i64 0, i64 0
  %20 = call i64 @strlen(i8* %19) #4
  %21 = trunc i64 %20 to i32
  store i32 %21, i32* %6, align 4
  %22 = getelementptr inbounds [101 x i8], [101 x i8]* %2, i64 0, i64 0
  store i8* %22, i8** %9, align 8
  br label %23

23:                                               ; preds = %94, %0
  %24 = load i8*, i8** %9, align 8
  %25 = getelementptr inbounds [101 x i8], [101 x i8]* %3, i64 0, i64 0
  %26 = call i8* @strstr(i8* %24, i8* %25) #4
  store i8* %26, i8** %7, align 8
  %27 = icmp ne i8* %26, null
  br i1 %27, label %28, label %100

28:                                               ; preds = %23
  %29 = load i8*, i8** %7, align 8
  %30 = getelementptr inbounds [101 x i8], [101 x i8]* %2, i64 0, i64 0
  %31 = icmp eq i8* %29, %30
  br i1 %31, label %38, label %32

32:                                               ; preds = %28
  %33 = load i8*, i8** %7, align 8
  %34 = getelementptr inbounds i8, i8* %33, i64 -1
  %35 = load i8, i8* %34, align 1
  %36 = sext i8 %35 to i32
  %37 = icmp eq i32 %36, 32
  br i1 %37, label %38, label %68

38:                                               ; preds = %32, %28
  %39 = load i8*, i8** %7, align 8
  %40 = load i32, i32* %5, align 4
  %41 = sext i32 %40 to i64
  %42 = getelementptr inbounds i8, i8* %39, i64 %41
  %43 = load i8, i8* %42, align 1
  %44 = sext i8 %43 to i32
  %45 = icmp eq i32 %44, 32
  br i1 %45, label %46, label %68

46:                                               ; preds = %38
  %47 = getelementptr inbounds [101 x i8], [101 x i8]* %8, i64 0, i64 0
  %48 = load i8*, i8** %7, align 8
  %49 = load i32, i32* %5, align 4
  %50 = sext i32 %49 to i64
  %51 = getelementptr inbounds i8, i8* %48, i64 %50
  %52 = getelementptr inbounds i8, i8* %51, i64 1
  %53 = call i8* @strcpy(i8* %47, i8* %52) #5
  %54 = load i8*, i8** %7, align 8
  %55 = getelementptr inbounds [101 x i8], [101 x i8]* %4, i64 0, i64 0
  %56 = call i8* @strcpy(i8* %54, i8* %55) #5
  %57 = load i8*, i8** %7, align 8
  %58 = load i32, i32* %6, align 4
  %59 = sext i32 %58 to i64
  %60 = getelementptr inbounds i8, i8* %57, i64 %59
  store i8 32, i8* %60, align 1
  %61 = load i8*, i8** %7, align 8
  %62 = load i32, i32* %6, align 4
  %63 = sext i32 %62 to i64
  %64 = getelementptr inbounds i8, i8* %61, i64 %63
  %65 = getelementptr inbounds i8, i8* %64, i64 1
  %66 = getelementptr inbounds [101 x i8], [101 x i8]* %8, i64 0, i64 0
  %67 = call i8* @strcpy(i8* %65, i8* %66) #5
  br label %68

68:                                               ; preds = %46, %38, %32
  %69 = load i8*, i8** %7, align 8
  %70 = getelementptr inbounds [101 x i8], [101 x i8]* %2, i64 0, i64 0
  %71 = icmp eq i8* %69, %70
  br i1 %71, label %78, label %72

72:                                               ; preds = %68
  %73 = load i8*, i8** %7, align 8
  %74 = getelementptr inbounds i8, i8* %73, i64 -1
  %75 = load i8, i8* %74, align 1
  %76 = sext i8 %75 to i32
  %77 = icmp eq i32 %76, 32
  br i1 %77, label %78, label %94

78:                                               ; preds = %72, %68
  %79 = load i8*, i8** %7, align 8
  %80 = load i32, i32* %5, align 4
  %81 = sext i32 %80 to i64
  %82 = getelementptr inbounds i8, i8* %79, i64 %81
  %83 = load i8, i8* %82, align 1
  %84 = sext i8 %83 to i32
  %85 = icmp eq i32 %84, 0
  br i1 %85, label %86, label %94

86:                                               ; preds = %78
  %87 = load i8*, i8** %7, align 8
  %88 = getelementptr inbounds [101 x i8], [101 x i8]* %4, i64 0, i64 0
  %89 = call i8* @strcpy(i8* %87, i8* %88) #5
  %90 = load i8*, i8** %7, align 8
  %91 = load i32, i32* %6, align 4
  %92 = sext i32 %91 to i64
  %93 = getelementptr inbounds i8, i8* %90, i64 %92
  store i8 0, i8* %93, align 1
  br label %94

94:                                               ; preds = %86, %78, %72
  %95 = load i8*, i8** %7, align 8
  %96 = load i32, i32* %5, align 4
  %97 = sext i32 %96 to i64
  %98 = getelementptr inbounds i8, i8* %95, i64 %97
  %99 = getelementptr inbounds i8, i8* %98, i64 1
  store i8* %99, i8** %9, align 8
  br label %23

100:                                              ; preds = %23
  %101 = getelementptr inbounds [101 x i8], [101 x i8]* %2, i64 0, i64 0
  %102 = call i32 @puts(i8* %101)
  ret i32 0
}

declare dso_local i32 @gets(...) #1

declare dso_local i32 @__isoc99_scanf(i8*, ...) #1

; Function Attrs: nounwind readonly
declare dso_local i64 @strlen(i8*) #2

; Function Attrs: nounwind readonly
declare dso_local i8* @strstr(i8*, i8*) #2

; Function Attrs: nounwind
declare dso_local i8* @strcpy(i8*, i8*) #3

declare dso_local i32 @puts(i8*) #1


!llvm.module.flags = !{!0}
!llvm.ident = !{!1}

!0 = !{i32 1, !"wchar_size", i32 4}
!1 = !{!"clang version 10.0.0-4ubuntu1 "}
