; ModuleID = 'source-C-CXX/18/282.c'
source_filename = "source-C-CXX/18/282.c"
target datalayout = "e-m:e-p270:32:32-p271:32:32-p272:64:64-i64:64-f80:128-n8:16:32:64-S128"
target triple = "x86_64-pc-linux-gnu"

@.str = private unnamed_addr constant [3 x i8] c"%s\00", align 1

; Function Attrs: nounwind sspstrong uwtable
define dso_local i32 @main() local_unnamed_addr #0 {
  %1 = alloca [101 x i8], align 16
  %2 = alloca [101 x i8], align 16
  %3 = alloca [101 x i8], align 16
  %4 = alloca [101 x i8], align 16
  %5 = getelementptr inbounds [101 x i8], [101 x i8]* %1, i64 0, i64 0
  call void @llvm.lifetime.start.p0i8(i64 101, i8* nonnull %5) #6
  %6 = getelementptr inbounds [101 x i8], [101 x i8]* %2, i64 0, i64 0
  call void @llvm.lifetime.start.p0i8(i64 101, i8* nonnull %6) #6
  %7 = getelementptr inbounds [101 x i8], [101 x i8]* %3, i64 0, i64 0
  call void @llvm.lifetime.start.p0i8(i64 101, i8* nonnull %7) #6
  %8 = getelementptr inbounds [101 x i8], [101 x i8]* %4, i64 0, i64 0
  call void @llvm.lifetime.start.p0i8(i64 101, i8* nonnull %8) #6
  %9 = call i32 (i8*, ...) bitcast (i32 (...)* @gets to i32 (i8*, ...)*)(i8* nonnull %5) #6
  %10 = call i32 (i8*, ...) @__isoc99_scanf(i8* getelementptr inbounds ([3 x i8], [3 x i8]* @.str, i64 0, i64 0), i8* nonnull %6)
  %11 = call i32 (i8*, ...) @__isoc99_scanf(i8* getelementptr inbounds ([3 x i8], [3 x i8]* @.str, i64 0, i64 0), i8* nonnull %7)
  %12 = call i64 @strlen(i8* noundef nonnull %6) #7
  %13 = call i64 @strlen(i8* noundef nonnull %7) #7
  %14 = shl i64 %12, 32
  %15 = ashr exact i64 %14, 32
  %16 = shl i64 %13, 32
  %17 = ashr exact i64 %16, 32
  %18 = add nsw i64 %15, 1
  %19 = call i8* @strstr(i8* noundef nonnull dereferenceable(1) %5, i8* noundef nonnull %6) #7
  %20 = icmp eq i8* %19, null
  br i1 %20, label %55, label %21

21:                                               ; preds = %0, %51
  %22 = phi i8* [ %53, %51 ], [ %19, %0 ]
  %23 = icmp eq i8* %22, %5
  br i1 %23, label %28, label %24

24:                                               ; preds = %21
  %25 = getelementptr inbounds i8, i8* %22, i64 -1
  %26 = load i8, i8* %25, align 1, !tbaa !5
  %27 = icmp eq i8 %26, 32
  br i1 %27, label %28, label %51

28:                                               ; preds = %24, %21
  %29 = getelementptr inbounds i8, i8* %22, i64 %15
  %30 = load i8, i8* %29, align 1, !tbaa !5
  %31 = icmp eq i8 %30, 32
  br i1 %31, label %32, label %39

32:                                               ; preds = %28
  %33 = getelementptr inbounds i8, i8* %29, i64 1
  %34 = call i8* @strcpy(i8* noundef nonnull %8, i8* noundef nonnull %33) #6
  %35 = call i8* @strcpy(i8* noundef nonnull %22, i8* noundef nonnull %7) #6
  %36 = getelementptr inbounds i8, i8* %22, i64 %17
  store i8 32, i8* %36, align 1, !tbaa !5
  %37 = getelementptr inbounds i8, i8* %36, i64 1
  %38 = call i8* @strcpy(i8* noundef nonnull %37, i8* noundef nonnull %8) #6
  br label %39

39:                                               ; preds = %32, %28
  br i1 %23, label %44, label %40

40:                                               ; preds = %39
  %41 = getelementptr inbounds i8, i8* %22, i64 -1
  %42 = load i8, i8* %41, align 1, !tbaa !5
  %43 = icmp eq i8 %42, 32
  br i1 %43, label %44, label %51

44:                                               ; preds = %40, %39
  %45 = getelementptr inbounds i8, i8* %22, i64 %15
  %46 = load i8, i8* %45, align 1, !tbaa !5
  %47 = icmp eq i8 %46, 0
  br i1 %47, label %48, label %51

48:                                               ; preds = %44
  %49 = call i8* @strcpy(i8* noundef nonnull %22, i8* noundef nonnull %7) #6
  %50 = getelementptr inbounds i8, i8* %22, i64 %17
  store i8 0, i8* %50, align 1, !tbaa !5
  br label %51

51:                                               ; preds = %24, %48, %44, %40
  %52 = getelementptr inbounds i8, i8* %22, i64 %18
  %53 = call i8* @strstr(i8* noundef nonnull dereferenceable(1) %52, i8* noundef nonnull %6) #7
  %54 = icmp eq i8* %53, null
  br i1 %54, label %55, label %21, !llvm.loop !8

55:                                               ; preds = %51, %0
  %56 = call i32 @puts(i8* nonnull %5)
  call void @llvm.lifetime.end.p0i8(i64 101, i8* nonnull %8) #6
  call void @llvm.lifetime.end.p0i8(i64 101, i8* nonnull %7) #6
  call void @llvm.lifetime.end.p0i8(i64 101, i8* nonnull %6) #6
  call void @llvm.lifetime.end.p0i8(i64 101, i8* nonnull %5) #6
  ret i32 0
}

; Function Attrs: argmemonly mustprogress nofree nosync nounwind willreturn
declare void @llvm.lifetime.start.p0i8(i64 immarg, i8* nocapture) #1

declare i32 @gets(...) local_unnamed_addr #2

; Function Attrs: nofree nounwind
declare noundef i32 @__isoc99_scanf(i8* nocapture noundef readonly, ...) local_unnamed_addr #3

; Function Attrs: argmemonly mustprogress nofree nounwind readonly willreturn
declare i64 @strlen(i8* nocapture) local_unnamed_addr #4

; Function Attrs: argmemonly mustprogress nofree nounwind readonly willreturn
declare i8* @strstr(i8*, i8* nocapture) local_unnamed_addr #4

; Function Attrs: argmemonly mustprogress nofree nounwind willreturn
declare i8* @strcpy(i8* noalias returned writeonly, i8* noalias nocapture readonly) local_unnamed_addr #5

; Function Attrs: nofree nounwind
declare noundef i32 @puts(i8* nocapture noundef readonly) local_unnamed_addr #3

; Function Attrs: argmemonly mustprogress nofree nosync nounwind willreturn
declare void @llvm.lifetime.end.p0i8(i64 immarg, i8* nocapture) #1


!llvm.module.flags = !{!0, !1, !2, !3}
!llvm.ident = !{!4}

!0 = !{i32 1, !"wchar_size", i32 4}
!1 = !{i32 7, !"PIC Level", i32 2}
!2 = !{i32 7, !"PIE Level", i32 2}
!3 = !{i32 7, !"uwtable", i32 1}
!4 = !{!"clang version 13.0.0"}
!5 = !{!6, !6, i64 0}
!6 = !{!"omnipotent char", !7, i64 0}
!7 = !{!"Simple C/C++ TBAA"}
!8 = distinct !{!8, !9}
!9 = !{!"llvm.loop.mustprogress"}
